; Function Attrs: mustprogress uwtable
define internal void @_ZN5arrow3ipc12_GLOBAL__N_121RecordBatchSerializer17SerializeMetadataEl(ptr dead_on_unwind noalias writable sret(%"class.arrow::Status") align 8 %0, ptr noundef nonnull align 8 dereferenceable(128) %1, i64 noundef %2) unnamed_addr #1 align 2 {
  %4 = getelementptr inbounds nuw i8, ptr %1, i64 8
  %5 = load ptr, ptr %4, align 8, !tbaa !78
  %6 = getelementptr inbounds nuw i8, ptr %5, i64 72
  %7 = load i64, ptr %6, align 8, !tbaa !291
  %8 = getelementptr inbounds nuw i8, ptr %1, i64 16
  %9 = getelementptr inbounds nuw i8, ptr %1, i64 32
  %10 = getelementptr inbounds nuw i8, ptr %1, i64 56
  %11 = getelementptr inbounds nuw i8, ptr %1, i64 80
  %12 = getelementptr inbounds nuw i8, ptr %1, i64 104
  %13 = load ptr, ptr %12, align 8, !tbaa !186
  %14 = getelementptr inbounds nuw i8, ptr %5, i64 8
  tail call void @_ZN5arrow3ipc8internal23WriteRecordBatchMessageEllRKSt10shared_ptrIKNS_16KeyValueMetadataEERKSt6vectorINS1_13FieldMetadataESaIS9_EERKS8_INS1_14BufferMetadataESaISE_EERKS8_IlSaIlEERKNS0_15IpcWriteOptionsEPS2_INS_6BufferEE(ptr dead_on_unwind writable sret(%"class.arrow::Status") align 8 %0, i64 noundef %2, i64 noundef %7, ptr noundef nonnull align 8 dereferenceable(16) %8, ptr noundef nonnull align 8 dereferenceable(24) %9, ptr noundef nonnull align 8 dereferenceable(24) %10, ptr noundef nonnull align 8 dereferenceable(24) %11, ptr noundef nonnull align 8 dereferenceable(60) %13, ptr noundef nonnull %14)
  ret void
}